target datalayout = "e-m:e-p270:32:32-p271:32:32-p272:64:64-i64:64-i128:128-f80:128-n8:16:32:64-S128"
target triple = "x86_64-pc-linux-gnu"

%struct.BackendGlobalData = type <{ ptr, ptr, i8, i8, i8, i8, i8, i8, i8, i8, i8, [3 x i8], i32, ptr, ptr, ptr, ptr, ptr, ptr, ptr, ptr, ptr, ptr, ptr, ptr, ptr, i32, %struct.jvmtiCapabilities, i8, [3 x i8], %struct.jvmtiEventCallbacks, ptr, ptr, ptr, ptr, ptr, ptr, ptr, i32, [4 x i8], ptr, i64, i32, [4 x i8], ptr, i32, i32, i8, i8, [6 x i8] }>
%struct.jvmtiCapabilities = type { i64, i64 }
%struct.jvmtiEventCallbacks = type { ptr, ptr, ptr, ptr, ptr, ptr, ptr, ptr, ptr, ptr, ptr, ptr, ptr, ptr, ptr, ptr, ptr, ptr, ptr, ptr, ptr, ptr, ptr, ptr, ptr, ptr, ptr, ptr, ptr, ptr, ptr, ptr, ptr, ptr, ptr, ptr, ptr, ptr, ptr }
%struct.JNINativeInterface_ = type { ptr, ptr, ptr, ptr, ptr, ptr, ptr, ptr, ptr, ptr, ptr, ptr, ptr, ptr, ptr, ptr, ptr, ptr, ptr, ptr, ptr, ptr, ptr, ptr, ptr, ptr, ptr, ptr, ptr, ptr, ptr, ptr, ptr, ptr, ptr, ptr, ptr, ptr, ptr, ptr, ptr, ptr, ptr, ptr, ptr, ptr, ptr, ptr, ptr, ptr, ptr, ptr, ptr, ptr, ptr, ptr, ptr, ptr, ptr, ptr, ptr, ptr, ptr, ptr, ptr, ptr, ptr, ptr, ptr, ptr, ptr, ptr, ptr, ptr, ptr, ptr, ptr, ptr, ptr, ptr, ptr, ptr, ptr, ptr, ptr, ptr, ptr, ptr, ptr, ptr, ptr, ptr, ptr, ptr, ptr, ptr, ptr, ptr, ptr, ptr, ptr, ptr, ptr, ptr, ptr, ptr, ptr, ptr, ptr, ptr, ptr, ptr, ptr, ptr, ptr, ptr, ptr, ptr, ptr, ptr, ptr, ptr, ptr, ptr, ptr, ptr, ptr, ptr, ptr, ptr, ptr, ptr, ptr, ptr, ptr, ptr, ptr, ptr, ptr, ptr, ptr, ptr, ptr, ptr, ptr, ptr, ptr, ptr, ptr, ptr, ptr, ptr, ptr, ptr, ptr, ptr, ptr, ptr, ptr, ptr, ptr, ptr, ptr, ptr, ptr, ptr, ptr, ptr, ptr, ptr, ptr, ptr, ptr, ptr, ptr, ptr, ptr, ptr, ptr, ptr, ptr, ptr, ptr, ptr, ptr, ptr, ptr, ptr, ptr, ptr, ptr, ptr, ptr, ptr, ptr, ptr, ptr, ptr, ptr, ptr, ptr, ptr, ptr, ptr, ptr, ptr, ptr, ptr, ptr, ptr, ptr, ptr, ptr, ptr, ptr, ptr, ptr, ptr, ptr, ptr, ptr, ptr, ptr, ptr, ptr, ptr, ptr, ptr, ptr, ptr, ptr, ptr, ptr, ptr, ptr }
%struct.jvmtiMonitorUsage = type { ptr, i32, i32, ptr, i32, ptr }
%struct.jvmtiInterface_1_ = type { ptr, ptr, ptr, ptr, ptr, ptr, ptr, ptr, ptr, ptr, ptr, ptr, ptr, ptr, ptr, ptr, ptr, ptr, ptr, ptr, ptr, ptr, ptr, ptr, ptr, ptr, ptr, ptr, ptr, ptr, ptr, ptr, ptr, ptr, ptr, ptr, ptr, ptr, ptr, ptr, ptr, ptr, ptr, ptr, ptr, ptr, ptr, ptr, ptr, ptr, ptr, ptr, ptr, ptr, ptr, ptr, ptr, ptr, ptr, ptr, ptr, ptr, ptr, ptr, ptr, ptr, ptr, ptr, ptr, ptr, ptr, ptr, ptr, ptr, ptr, ptr, ptr, ptr, ptr, ptr, ptr, ptr, ptr, ptr, ptr, ptr, ptr, ptr, ptr, ptr, ptr, ptr, ptr, ptr, ptr, ptr, ptr, ptr, ptr, ptr, ptr, ptr, ptr, ptr, ptr, ptr, ptr, ptr, ptr, ptr, ptr, ptr, ptr, ptr, ptr, ptr, ptr, ptr, ptr, ptr, ptr, ptr, ptr, ptr, ptr, ptr, ptr, ptr, ptr, ptr, ptr, ptr, ptr, ptr, ptr, ptr, ptr, ptr, ptr, ptr, ptr, ptr, ptr, ptr, ptr, ptr, ptr, ptr, ptr, ptr, ptr, ptr, ptr, ptr, ptr, ptr }

@gdata = external global ptr, align 8
@.str.11 = private unnamed_addr constant [4 x i8] c"JNI\00", align 1
@.str.12 = private unnamed_addr constant [62 x i8] c"src/jdk.jdwp.agent/share/native/libjdwp/ObjectReferenceImpl.c\00", align 1
@.str.13 = private unnamed_addr constant [5 x i8] c"%s()\00", align 1
@.str.15 = private unnamed_addr constant [14 x i8] c"PopLocalFrame\00", align 1
@.str.28 = private unnamed_addr constant [6 x i8] c"JVMTI\00", align 1
@.str.29 = private unnamed_addr constant [22 x i8] c"GetObjectMonitorUsage\00", align 1

; Function Attrs: nounwind uwtable
define internal zeroext i8 @monitorInfo(ptr noundef %0, ptr noundef %1) #0 {
  %3 = alloca i8, align 1
  %4 = alloca ptr, align 8
  %5 = alloca ptr, align 8
  %6 = alloca ptr, align 8
  %7 = alloca ptr, align 8
  %8 = alloca i32, align 4
  %9 = alloca %struct.jvmtiMonitorUsage, align 8
  %10 = alloca i32, align 4
  store ptr %0, ptr %4, align 8
  store ptr %1, ptr %5, align 8
  %11 = call ptr @getEnv()
  store ptr %11, ptr %6, align 8
  %12 = load ptr, ptr %6, align 8
  %13 = load ptr, ptr %4, align 8
  %14 = call ptr @inStream_readObjectRef(ptr noundef %12, ptr noundef %13)
  store ptr %14, ptr %7, align 8
  %15 = load ptr, ptr %4, align 8
  %16 = call zeroext i16 @inStream_error(ptr noundef %15)
  %17 = icmp ne i16 %16, 0
  br i1 %17, label %18, label %19

18:                                               ; preds = %2
  store i8 1, ptr %3, align 1
  br label %130

19:                                               ; preds = %2
  %20 = load ptr, ptr %6, align 8
  call void @createLocalRefSpace(ptr noundef %20, i32 noundef 1)
  call void @llvm.memset.p0.i64(ptr align 8 %9, i8 0, i64 40, i1 false)
  %21 = load ptr, ptr @gdata, align 8
  %22 = getelementptr inbounds %struct.BackendGlobalData, ptr %21, i32 0, i32 38
  %23 = load i32, ptr %22, align 8
  %24 = and i32 %23, 4
  %25 = icmp ne i32 %24, 0
  br i1 %25, label %26, label %27

26:                                               ; preds = %19
  call void @log_message_begin(ptr noundef @.str.28, ptr noundef @.str.12, i32 noundef 214)
  call void (ptr, ...) @log_message_end(ptr noundef @.str.13, ptr noundef @.str.29)
  br label %28

27:                                               ; preds = %19
  br label %28

28:                                               ; preds = %27, %26
  %29 = load ptr, ptr @gdata, align 8
  %30 = getelementptr inbounds %struct.BackendGlobalData, ptr %29, i32 0, i32 0
  %31 = load ptr, ptr %30, align 8
  %32 = load ptr, ptr %31, align 8
  %33 = getelementptr inbounds %struct.jvmtiInterface_1_, ptr %32, i32 0, i32 58
  %34 = load ptr, ptr %33, align 8
  %35 = load ptr, ptr @gdata, align 8
  %36 = getelementptr inbounds %struct.BackendGlobalData, ptr %35, i32 0, i32 0
  %37 = load ptr, ptr %36, align 8
  %38 = load ptr, ptr %7, align 8
  %39 = call i32 %34(ptr noundef %37, ptr noundef %38, ptr noundef %9)
  store i32 %39, ptr %8, align 4
  %40 = load i32, ptr %8, align 4
  %41 = icmp ne i32 %40, 0
  br i1 %41, label %42, label %46

42:                                               ; preds = %28
  %43 = load ptr, ptr %5, align 8
  %44 = load i32, ptr %8, align 4
  %45 = call zeroext i16 @map2jdwpError(i32 noundef %44)
  call void @outStream_setError(ptr noundef %43, i16 noundef zeroext %45)
  br label %101

46:                                               ; preds = %28
  %47 = load ptr, ptr %6, align 8
  %48 = load ptr, ptr %5, align 8
  %49 = getelementptr inbounds %struct.jvmtiMonitorUsage, ptr %9, i32 0, i32 0
  %50 = load ptr, ptr %49, align 8
  %51 = call zeroext i16 @outStream_writeObjectRef(ptr noundef %47, ptr noundef %48, ptr noundef %50)
  %52 = load ptr, ptr %5, align 8
  %53 = getelementptr inbounds %struct.jvmtiMonitorUsage, ptr %9, i32 0, i32 1
  %54 = load i32, ptr %53, align 8
  %55 = call zeroext i16 @outStream_writeInt(ptr noundef %52, i32 noundef %54)
  %56 = load ptr, ptr %5, align 8
  %57 = getelementptr inbounds %struct.jvmtiMonitorUsage, ptr %9, i32 0, i32 2
  %58 = load i32, ptr %57, align 4
  %59 = getelementptr inbounds %struct.jvmtiMonitorUsage, ptr %9, i32 0, i32 4
  %60 = load i32, ptr %59, align 8
  %61 = add nsw i32 %58, %60
  %62 = call zeroext i16 @outStream_writeInt(ptr noundef %56, i32 noundef %61)
  store i32 0, ptr %10, align 4
  br label %63

63:                                               ; preds = %78, %46
  %64 = load i32, ptr %10, align 4
  %65 = getelementptr inbounds %struct.jvmtiMonitorUsage, ptr %9, i32 0, i32 2
  %66 = load i32, ptr %65, align 4
  %67 = icmp slt i32 %64, %66
  br i1 %67, label %68, label %81

68:                                               ; preds = %63
  %69 = load ptr, ptr %6, align 8
  %70 = load ptr, ptr %5, align 8
  %71 = getelementptr inbounds %struct.jvmtiMonitorUsage, ptr %9, i32 0, i32 3
  %72 = load ptr, ptr %71, align 8
  %73 = load i32, ptr %10, align 4
  %74 = sext i32 %73 to i64
  %75 = getelementptr inbounds ptr, ptr %72, i64 %74
  %76 = load ptr, ptr %75, align 8
  %77 = call zeroext i16 @outStream_writeObjectRef(ptr noundef %69, ptr noundef %70, ptr noundef %76)
  br label %78

78:                                               ; preds = %68
  %79 = load i32, ptr %10, align 4
  %80 = add nsw i32 %79, 1
  store i32 %80, ptr %10, align 4
  br label %63, !llvm.loop !8

81:                                               ; preds = %63
  store i32 0, ptr %10, align 4
  br label %82

82:                                               ; preds = %97, %81
  %83 = load i32, ptr %10, align 4
  %84 = getelementptr inbounds %struct.jvmtiMonitorUsage, ptr %9, i32 0, i32 4
  %85 = load i32, ptr %84, align 8
  %86 = icmp slt i32 %83, %85
  br i1 %86, label %87, label %100

87:                                               ; preds = %82
  %88 = load ptr, ptr %6, align 8
  %89 = load ptr, ptr %5, align 8
  %90 = getelementptr inbounds %struct.jvmtiMonitorUsage, ptr %9, i32 0, i32 5
  %91 = load ptr, ptr %90, align 8
  %92 = load i32, ptr %10, align 4
  %93 = sext i32 %92 to i64
  %94 = getelementptr inbounds ptr, ptr %91, i64 %93
  %95 = load ptr, ptr %94, align 8
  %96 = call zeroext i16 @outStream_writeObjectRef(ptr noundef %88, ptr noundef %89, ptr noundef %95)
  br label %97

97:                                               ; preds = %87
  %98 = load i32, ptr %10, align 4
  %99 = add nsw i32 %98, 1
  store i32 %99, ptr %10, align 4
  br label %82, !llvm.loop !9

100:                                              ; preds = %82
  br label %101

101:                                              ; preds = %100, %42
  %102 = getelementptr inbounds %struct.jvmtiMonitorUsage, ptr %9, i32 0, i32 3
  %103 = load ptr, ptr %102, align 8
  %104 = icmp ne ptr %103, null
  br i1 %104, label %105, label %108

105:                                              ; preds = %101
  %106 = getelementptr inbounds %struct.jvmtiMonitorUsage, ptr %9, i32 0, i32 3
  %107 = load ptr, ptr %106, align 8
  call void @jvmtiDeallocate(ptr noundef %107)
  br label %108

108:                                              ; preds = %105, %101
  %109 = getelementptr inbounds %struct.jvmtiMonitorUsage, ptr %9, i32 0, i32 5
  %110 = load ptr, ptr %109, align 8
  %111 = icmp ne ptr %110, null
  br i1 %111, label %112, label %115

112:                                              ; preds = %108
  %113 = getelementptr inbounds %struct.jvmtiMonitorUsage, ptr %9, i32 0, i32 5
  %114 = load ptr, ptr %113, align 8
  call void @jvmtiDeallocate(ptr noundef %114)
  br label %115

115:                                              ; preds = %112, %108
  %116 = load ptr, ptr @gdata, align 8
  %117 = getelementptr inbounds %struct.BackendGlobalData, ptr %116, i32 0, i32 38
  %118 = load i32, ptr %117, align 8
  %119 = and i32 %118, 2
  %120 = icmp ne i32 %119, 0
  br i1 %120, label %121, label %122

121:                                              ; preds = %115
  call void @log_message_begin(ptr noundef @.str.11, ptr noundef @.str.12, i32 noundef 236)
  call void (ptr, ...) @log_message_end(ptr noundef @.str.13, ptr noundef @.str.15)
  br label %123

122:                                              ; preds = %115
  br label %123

123:                                              ; preds = %122, %121
  %124 = load ptr, ptr %6, align 8
  %125 = load ptr, ptr %124, align 8
  %126 = getelementptr inbounds %struct.JNINativeInterface_, ptr %125, i32 0, i32 20
  %127 = load ptr, ptr %126, align 8
  %128 = load ptr, ptr %6, align 8
  %129 = call ptr %127(ptr noundef %128, ptr noundef null)
  store i8 1, ptr %3, align 1
  br label %130

130:                                              ; preds = %123, %18
  %131 = load i8, ptr %3, align 1
  ret i8 %131
}