; Function Attrs: nounwind uwtable
define internal noundef zeroext i8 @monitorInfo(ptr noundef %0, ptr noundef %1) #0 {
  %3 = alloca %struct.jvmtiMonitorUsage, align 8
  %4 = tail call ptr @getEnv() #3
  %5 = tail call ptr @inStream_readObjectRef(ptr noundef %4, ptr noundef %0) #3
  %6 = tail call zeroext i16 @inStream_error(ptr noundef %0) #3
  %.not = icmp eq i16 %6, 0
  br i1 %.not, label %7, label %74

7:                                                ; preds = %2
  tail call void @createLocalRefSpace(ptr noundef %4, i32 noundef 1) #3
  call void @llvm.memset.p0.i64(ptr noundef nonnull align 8 dereferenceable(40) %3, i8 0, i64 40, i1 false)
  %8 = load ptr, ptr @gdata, align 8
  %9 = getelementptr inbounds i8, ptr %8, i64 528
  %10 = load i32, ptr %9, align 8
  %11 = and i32 %10, 4
  %.not28 = icmp eq i32 %11, 0
  br i1 %.not28, label %13, label %12

12:                                               ; preds = %7
  tail call void @log_message_begin(ptr noundef nonnull @.str.28, ptr noundef nonnull @.str.12, i32 noundef 214) #3
  tail call void (ptr, ...) @log_message_end(ptr noundef nonnull @.str.13, ptr noundef nonnull @.str.29) #3
  %.pre = load ptr, ptr @gdata, align 8
  br label %13

13:                                               ; preds = %7, %12
  %14 = phi ptr [ %8, %7 ], [ %.pre, %12 ]
  %15 = load ptr, ptr %14, align 8
  %16 = load ptr, ptr %15, align 8
  %17 = getelementptr inbounds i8, ptr %16, i64 464
  %18 = load ptr, ptr %17, align 8
  %19 = call i32 %18(ptr noundef nonnull %15, ptr noundef %5, ptr noundef nonnull %3) #3
  %.not29 = icmp eq i32 %19, 0
  br i1 %.not29, label %22, label %20

20:                                               ; preds = %13
  %21 = call zeroext i16 @map2jdwpError(i32 noundef %19) #3
  call void @outStream_setError(ptr noundef %1, i16 noundef zeroext %21) #3
  br label %.loopexit

22:                                               ; preds = %13
  %23 = load ptr, ptr %3, align 8
  %24 = call zeroext i16 @outStream_writeObjectRef(ptr noundef %4, ptr noundef %1, ptr noundef %23) #3
  %25 = getelementptr inbounds i8, ptr %3, i64 8
  %26 = load i32, ptr %25, align 8
  %27 = call zeroext i16 @outStream_writeInt(ptr noundef %1, i32 noundef %26) #3
  %28 = getelementptr inbounds i8, ptr %3, i64 12
  %29 = load i32, ptr %28, align 4
  %30 = getelementptr inbounds i8, ptr %3, i64 24
  %31 = load i32, ptr %30, align 8
  %32 = add nsw i32 %31, %29
  %33 = call zeroext i16 @outStream_writeInt(ptr noundef %1, i32 noundef %32) #3
  %34 = load i32, ptr %28, align 4
  %35 = icmp sgt i32 %34, 0
  br i1 %35, label %.lr.ph, label %.preheader

.lr.ph:                                           ; preds = %22
  %36 = getelementptr inbounds i8, ptr %3, i64 16
  br label %40

.preheader:                                       ; preds = %40, %22
  %37 = load i32, ptr %30, align 8
  %38 = icmp sgt i32 %37, 0
  br i1 %38, label %.lr.ph35, label %.loopexit

.lr.ph35:                                         ; preds = %.preheader
  %39 = getelementptr inbounds i8, ptr %3, i64 32
  br label %48

40:                                               ; preds = %.lr.ph, %40
  %indvars.iv = phi i64 [ 0, %.lr.ph ], [ %indvars.iv.next, %40 ]
  %41 = load ptr, ptr %36, align 8
  %42 = getelementptr inbounds ptr, ptr %41, i64 %indvars.iv
  %43 = load ptr, ptr %42, align 8
  %44 = call zeroext i16 @outStream_writeObjectRef(ptr noundef %4, ptr noundef %1, ptr noundef %43) #3
  %indvars.iv.next = add nuw nsw i64 %indvars.iv, 1
  %45 = load i32, ptr %28, align 4
  %46 = sext i32 %45 to i64
  %47 = icmp slt i64 %indvars.iv.next, %46
  br i1 %47, label %40, label %.preheader, !llvm.loop !8

48:                                               ; preds = %.lr.ph35, %48
  %indvars.iv37 = phi i64 [ 0, %.lr.ph35 ], [ %indvars.iv.next38, %48 ]
  %49 = load ptr, ptr %39, align 8
  %50 = getelementptr inbounds ptr, ptr %49, i64 %indvars.iv37
  %51 = load ptr, ptr %50, align 8
  %52 = call zeroext i16 @outStream_writeObjectRef(ptr noundef %4, ptr noundef %1, ptr noundef %51) #3
  %indvars.iv.next38 = add nuw nsw i64 %indvars.iv37, 1
  %53 = load i32, ptr %30, align 8
  %54 = sext i32 %53 to i64
  %55 = icmp slt i64 %indvars.iv.next38, %54
  br i1 %55, label %48, label %.loopexit, !llvm.loop !9

.loopexit:                                        ; preds = %48, %.preheader, %20
  %56 = getelementptr inbounds i8, ptr %3, i64 16
  %57 = load ptr, ptr %56, align 8
  %.not30 = icmp eq ptr %57, null
  br i1 %.not30, label %59, label %58

58:                                               ; preds = %.loopexit
  call void @jvmtiDeallocate(ptr noundef nonnull %57) #3
  br label %59

59:                                               ; preds = %58, %.loopexit
  %60 = getelementptr inbounds i8, ptr %3, i64 32
  %61 = load ptr, ptr %60, align 8
  %.not31 = icmp eq ptr %61, null
  br i1 %.not31, label %63, label %62

62:                                               ; preds = %59
  call void @jvmtiDeallocate(ptr noundef nonnull %61) #3
  br label %63

63:                                               ; preds = %62, %59
  %64 = load ptr, ptr @gdata, align 8
  %65 = getelementptr inbounds i8, ptr %64, i64 528
  %66 = load i32, ptr %65, align 8
  %67 = and i32 %66, 2
  %.not32 = icmp eq i32 %67, 0
  br i1 %.not32, label %69, label %68

68:                                               ; preds = %63
  call void @log_message_begin(ptr noundef nonnull @.str.11, ptr noundef nonnull @.str.12, i32 noundef 236) #3
  call void (ptr, ...) @log_message_end(ptr noundef nonnull @.str.13, ptr noundef nonnull @.str.15) #3
  br label %69

69:                                               ; preds = %63, %68
  %70 = load ptr, ptr %4, align 8
  %71 = getelementptr inbounds i8, ptr %70, i64 160
  %72 = load ptr, ptr %71, align 8
  %73 = call ptr %72(ptr noundef nonnull %4, ptr noundef null) #3
  br label %74

74:                                               ; preds = %2, %69
  ret i8 1
}